target datalayout = "e-m:e-p270:32:32-p271:32:32-p272:64:64-i64:64-i128:128-f80:128-n8:16:32:64-S128"
target triple = "x86_64-pc-linux-gnu"

%struct.AVFilterLink = type { ptr, ptr, ptr, ptr, i32, i32, i32, i32, %struct.AVRational, i32, i32, i32, %struct.AVChannelLayout, %struct.AVRational, ptr, i32, %struct.AVFilterFormatsConfig, %struct.AVFilterFormatsConfig }
%struct.AVChannelLayout = type { i32, i32, %union.anon.1, ptr }
%union.anon.1 = type { i64 }
%struct.AVRational = type { i32, i32 }
%struct.AVFilterFormatsConfig = type { ptr, ptr, ptr, ptr, ptr }
%struct.AVFilterContext = type { ptr, ptr, ptr, ptr, ptr, i32, ptr, ptr, i32, ptr, ptr, i32, i32, ptr, ptr, ptr, ptr, i32, ptr, i32, i32 }
%struct.ChromaNRContext = type { ptr, float, float, float, float, i32, i32, i32, i32, i32, i32, i32, i32, i32, i32, i32, i32, i32, [4 x i32], [4 x i32], [4 x i32], ptr, ptr }
%struct.AVPixFmtDescriptor = type { ptr, i8, i8, i8, i64, [4 x %struct.AVComponentDescriptor], ptr }
%struct.AVComponentDescriptor = type { i32, i32, i32, i32, i32 }

; Function Attrs: nounwind uwtable
define internal i32 @config_input(ptr noundef %0) #1 {
  %2 = alloca i32, align 4
  %3 = alloca ptr, align 8
  %4 = alloca ptr, align 8
  %5 = alloca ptr, align 8
  %6 = alloca ptr, align 8
  %7 = alloca i32, align 4
  %8 = alloca i32, align 4
  store ptr %0, ptr %3, align 8, !tbaa !4
  call void @llvm.lifetime.start.p0(i64 8, ptr %4) #6
  %9 = load ptr, ptr %3, align 8, !tbaa !4
  %10 = getelementptr inbounds nuw %struct.AVFilterLink, ptr %9, i32 0, i32 2
  %11 = load ptr, ptr %10, align 8, !tbaa !11
  store ptr %11, ptr %4, align 8, !tbaa !23
  call void @llvm.lifetime.start.p0(i64 8, ptr %5) #6
  %12 = load ptr, ptr %4, align 8, !tbaa !23
  %13 = getelementptr inbounds nuw %struct.AVFilterContext, ptr %12, i32 0, i32 9
  %14 = load ptr, ptr %13, align 8, !tbaa !34
  store ptr %14, ptr %5, align 8, !tbaa !35
  call void @llvm.lifetime.start.p0(i64 8, ptr %6) #6
  %15 = load ptr, ptr %3, align 8, !tbaa !4
  %16 = getelementptr inbounds nuw %struct.AVFilterLink, ptr %15, i32 0, i32 5
  %17 = load i32, ptr %16, align 4, !tbaa !54
  %18 = call ptr @av_pix_fmt_desc_get(i32 noundef %17)
  store ptr %18, ptr %6, align 8, !tbaa !55
  call void @llvm.lifetime.start.p0(i64 4, ptr %7) #6
  %19 = load ptr, ptr %6, align 8, !tbaa !55
  %20 = getelementptr inbounds nuw %struct.AVPixFmtDescriptor, ptr %19, i32 0, i32 1
  %21 = load i8, ptr %20, align 8, !tbaa !57
  %22 = zext i8 %21 to i32
  %23 = load ptr, ptr %5, align 8, !tbaa !35
  %24 = getelementptr inbounds nuw %struct.ChromaNRContext, ptr %23, i32 0, i32 17
  store i32 %22, ptr %24, align 8, !tbaa !60
  %25 = load ptr, ptr %6, align 8, !tbaa !55
  %26 = getelementptr inbounds nuw %struct.AVPixFmtDescriptor, ptr %25, i32 0, i32 5
  %27 = getelementptr inbounds [4 x %struct.AVComponentDescriptor], ptr %26, i64 0, i64 0
  %28 = getelementptr inbounds nuw %struct.AVComponentDescriptor, ptr %27, i32 0, i32 4
  %29 = load i32, ptr %28, align 8, !tbaa !61
  %30 = load ptr, ptr %5, align 8, !tbaa !35
  %31 = getelementptr inbounds nuw %struct.ChromaNRContext, ptr %30, i32 0, i32 14
  store i32 %29, ptr %31, align 4, !tbaa !40
  %32 = load ptr, ptr %6, align 8, !tbaa !55
  %33 = getelementptr inbounds nuw %struct.AVPixFmtDescriptor, ptr %32, i32 0, i32 2
  %34 = load i8, ptr %33, align 1, !tbaa !63
  %35 = zext i8 %34 to i32
  %36 = shl i32 1, %35
  %37 = load ptr, ptr %5, align 8, !tbaa !35
  %38 = getelementptr inbounds nuw %struct.ChromaNRContext, ptr %37, i32 0, i32 15
  store i32 %36, ptr %38, align 8, !tbaa !64
  %39 = load ptr, ptr %6, align 8, !tbaa !55
  %40 = getelementptr inbounds nuw %struct.AVPixFmtDescriptor, ptr %39, i32 0, i32 3
  %41 = load i8, ptr %40, align 2, !tbaa !65
  %42 = zext i8 %41 to i32
  %43 = shl i32 1, %42
  %44 = load ptr, ptr %5, align 8, !tbaa !35
  %45 = getelementptr inbounds nuw %struct.ChromaNRContext, ptr %44, i32 0, i32 16
  store i32 %43, ptr %45, align 4, !tbaa !66
  %46 = load ptr, ptr %6, align 8, !tbaa !55
  %47 = getelementptr inbounds nuw %struct.AVPixFmtDescriptor, ptr %46, i32 0, i32 3
  %48 = load i8, ptr %47, align 2, !tbaa !65
  %49 = call i1 @llvm.is.constant.i8(i8 %48)
  br i1 %49, label %61, label %50

50:                                               ; preds = %1
  %51 = load ptr, ptr %3, align 8, !tbaa !4
  %52 = getelementptr inbounds nuw %struct.AVFilterLink, ptr %51, i32 0, i32 7
  %53 = load i32, ptr %52, align 4, !tbaa !51
  %54 = sub nsw i32 0, %53
  %55 = load ptr, ptr %6, align 8, !tbaa !55
  %56 = getelementptr inbounds nuw %struct.AVPixFmtDescriptor, ptr %55, i32 0, i32 3
  %57 = load i8, ptr %56, align 2, !tbaa !65
  %58 = zext i8 %57 to i32
  %59 = ashr i32 %54, %58
  %60 = sub nsw i32 0, %59
  br label %77

61:                                               ; preds = %1
  %62 = load ptr, ptr %3, align 8, !tbaa !4
  %63 = getelementptr inbounds nuw %struct.AVFilterLink, ptr %62, i32 0, i32 7
  %64 = load i32, ptr %63, align 4, !tbaa !51
  %65 = load ptr, ptr %6, align 8, !tbaa !55
  %66 = getelementptr inbounds nuw %struct.AVPixFmtDescriptor, ptr %65, i32 0, i32 3
  %67 = load i8, ptr %66, align 2, !tbaa !65
  %68 = zext i8 %67 to i32
  %69 = shl i32 1, %68
  %70 = add nsw i32 %64, %69
  %71 = sub nsw i32 %70, 1
  %72 = load ptr, ptr %6, align 8, !tbaa !55
  %73 = getelementptr inbounds nuw %struct.AVPixFmtDescriptor, ptr %72, i32 0, i32 3
  %74 = load i8, ptr %73, align 2, !tbaa !65
  %75 = zext i8 %74 to i32
  %76 = ashr i32 %71, %75
  br label %77

77:                                               ; preds = %61, %50
  %78 = phi i32 [ %60, %50 ], [ %76, %61 ]
  %79 = load ptr, ptr %5, align 8, !tbaa !35
  %80 = getelementptr inbounds nuw %struct.ChromaNRContext, ptr %79, i32 0, i32 19
  %81 = getelementptr inbounds [4 x i32], ptr %80, i64 0, i64 2
  store i32 %78, ptr %81, align 4, !tbaa !53
  %82 = load ptr, ptr %5, align 8, !tbaa !35
  %83 = getelementptr inbounds nuw %struct.ChromaNRContext, ptr %82, i32 0, i32 19
  %84 = getelementptr inbounds [4 x i32], ptr %83, i64 0, i64 1
  store i32 %78, ptr %84, align 4, !tbaa !53
  %85 = load ptr, ptr %3, align 8, !tbaa !4
  %86 = getelementptr inbounds nuw %struct.AVFilterLink, ptr %85, i32 0, i32 7
  %87 = load i32, ptr %86, align 4, !tbaa !51
  %88 = load ptr, ptr %5, align 8, !tbaa !35
  %89 = getelementptr inbounds nuw %struct.ChromaNRContext, ptr %88, i32 0, i32 19
  %90 = getelementptr inbounds [4 x i32], ptr %89, i64 0, i64 3
  store i32 %87, ptr %90, align 4, !tbaa !53
  %91 = load ptr, ptr %5, align 8, !tbaa !35
  %92 = getelementptr inbounds nuw %struct.ChromaNRContext, ptr %91, i32 0, i32 19
  %93 = getelementptr inbounds [4 x i32], ptr %92, i64 0, i64 0
  store i32 %87, ptr %93, align 4, !tbaa !53
  %94 = load ptr, ptr %6, align 8, !tbaa !55
  %95 = getelementptr inbounds nuw %struct.AVPixFmtDescriptor, ptr %94, i32 0, i32 2
  %96 = load i8, ptr %95, align 1, !tbaa !63
  %97 = call i1 @llvm.is.constant.i8(i8 %96)
  br i1 %97, label %109, label %98

98:                                               ; preds = %77
  %99 = load ptr, ptr %3, align 8, !tbaa !4
  %100 = getelementptr inbounds nuw %struct.AVFilterLink, ptr %99, i32 0, i32 6
  %101 = load i32, ptr %100, align 8, !tbaa !50
  %102 = sub nsw i32 0, %101
  %103 = load ptr, ptr %6, align 8, !tbaa !55
  %104 = getelementptr inbounds nuw %struct.AVPixFmtDescriptor, ptr %103, i32 0, i32 2
  %105 = load i8, ptr %104, align 1, !tbaa !63
  %106 = zext i8 %105 to i32
  %107 = ashr i32 %102, %106
  %108 = sub nsw i32 0, %107
  br label %125

109:                                              ; preds = %77
  %110 = load ptr, ptr %3, align 8, !tbaa !4
  %111 = getelementptr inbounds nuw %struct.AVFilterLink, ptr %110, i32 0, i32 6
  %112 = load i32, ptr %111, align 8, !tbaa !50
  %113 = load ptr, ptr %6, align 8, !tbaa !55
  %114 = getelementptr inbounds nuw %struct.AVPixFmtDescriptor, ptr %113, i32 0, i32 2
  %115 = load i8, ptr %114, align 1, !tbaa !63
  %116 = zext i8 %115 to i32
  %117 = shl i32 1, %116
  %118 = add nsw i32 %112, %117
  %119 = sub nsw i32 %118, 1
  %120 = load ptr, ptr %6, align 8, !tbaa !55
  %121 = getelementptr inbounds nuw %struct.AVPixFmtDescriptor, ptr %120, i32 0, i32 2
  %122 = load i8, ptr %121, align 1, !tbaa !63
  %123 = zext i8 %122 to i32
  %124 = ashr i32 %119, %123
  br label %125

125:                                              ; preds = %109, %98
  %126 = phi i32 [ %108, %98 ], [ %124, %109 ]
  %127 = load ptr, ptr %5, align 8, !tbaa !35
  %128 = getelementptr inbounds nuw %struct.ChromaNRContext, ptr %127, i32 0, i32 20
  %129 = getelementptr inbounds [4 x i32], ptr %128, i64 0, i64 2
  store i32 %126, ptr %129, align 4, !tbaa !53
  %130 = load ptr, ptr %5, align 8, !tbaa !35
  %131 = getelementptr inbounds nuw %struct.ChromaNRContext, ptr %130, i32 0, i32 20
  %132 = getelementptr inbounds [4 x i32], ptr %131, i64 0, i64 1
  store i32 %126, ptr %132, align 4, !tbaa !53
  %133 = load ptr, ptr %3, align 8, !tbaa !4
  %134 = getelementptr inbounds nuw %struct.AVFilterLink, ptr %133, i32 0, i32 6
  %135 = load i32, ptr %134, align 8, !tbaa !50
  %136 = load ptr, ptr %5, align 8, !tbaa !35
  %137 = getelementptr inbounds nuw %struct.ChromaNRContext, ptr %136, i32 0, i32 20
  %138 = getelementptr inbounds [4 x i32], ptr %137, i64 0, i64 3
  store i32 %135, ptr %138, align 4, !tbaa !53
  %139 = load ptr, ptr %5, align 8, !tbaa !35
  %140 = getelementptr inbounds nuw %struct.ChromaNRContext, ptr %139, i32 0, i32 20
  %141 = getelementptr inbounds [4 x i32], ptr %140, i64 0, i64 0
  store i32 %135, ptr %141, align 4, !tbaa !53
  %142 = load ptr, ptr %5, align 8, !tbaa !35
  %143 = getelementptr inbounds nuw %struct.ChromaNRContext, ptr %142, i32 0, i32 18
  %144 = getelementptr inbounds [4 x i32], ptr %143, i64 0, i64 0
  %145 = load ptr, ptr %3, align 8, !tbaa !4
  %146 = getelementptr inbounds nuw %struct.AVFilterLink, ptr %145, i32 0, i32 5
  %147 = load i32, ptr %146, align 4, !tbaa !54
  %148 = load ptr, ptr %3, align 8, !tbaa !4
  %149 = getelementptr inbounds nuw %struct.AVFilterLink, ptr %148, i32 0, i32 6
  %150 = load i32, ptr %149, align 8, !tbaa !50
  %151 = call i32 @av_image_fill_linesizes(ptr noundef %144, i32 noundef %147, i32 noundef %150)
  store i32 %151, ptr %7, align 4, !tbaa !53
  %152 = icmp slt i32 %151, 0
  br i1 %152, label %153, label %155

153:                                              ; preds = %125
  %154 = load i32, ptr %7, align 4, !tbaa !53
  store i32 %154, ptr %2, align 4
  store i32 1, ptr %8, align 4
  br label %156

155:                                              ; preds = %125
  store i32 0, ptr %2, align 4
  store i32 1, ptr %8, align 4
  br label %156

156:                                              ; preds = %155, %153
  call void @llvm.lifetime.end.p0(i64 4, ptr %7) #6
  call void @llvm.lifetime.end.p0(i64 8, ptr %6) #6
  call void @llvm.lifetime.end.p0(i64 8, ptr %5) #6
  call void @llvm.lifetime.end.p0(i64 8, ptr %4) #6
  %157 = load i32, ptr %2, align 4
  ret i32 %157
}