; Function Attrs: nounwind uwtable
define internal range(i32 -2147483648, 1) i32 @config_input(ptr noundef readonly captures(none) %0) #1 {
  %2 = getelementptr inbounds nuw i8, ptr %0, i64 16
  %3 = load ptr, ptr %2, align 8, !tbaa !9
  %4 = getelementptr inbounds nuw i8, ptr %3, i64 72
  %5 = load ptr, ptr %4, align 8, !tbaa !33
  %6 = getelementptr inbounds nuw i8, ptr %0, i64 36
  %7 = load i32, ptr %6, align 4, !tbaa !51
  %8 = tail call ptr @av_pix_fmt_desc_get(i32 noundef %7) #5
  %9 = getelementptr inbounds nuw i8, ptr %8, i64 8
  %10 = load i8, ptr %9, align 8, !tbaa !52
  %11 = zext i8 %10 to i32
  %12 = getelementptr inbounds nuw i8, ptr %5, i64 72
  store i32 %11, ptr %12, align 8, !tbaa !55
  %13 = getelementptr inbounds nuw i8, ptr %8, i64 40
  %14 = load i32, ptr %13, align 8, !tbaa !56
  %15 = getelementptr inbounds nuw i8, ptr %5, i64 60
  store i32 %14, ptr %15, align 4, !tbaa !37
  %16 = getelementptr inbounds nuw i8, ptr %8, i64 9
  %17 = load i8, ptr %16, align 1, !tbaa !58
  %18 = zext i8 %17 to i32
  %19 = shl nuw i32 1, %18
  %20 = getelementptr inbounds nuw i8, ptr %5, i64 64
  store i32 %19, ptr %20, align 8, !tbaa !59
  %21 = getelementptr inbounds nuw i8, ptr %8, i64 10
  %22 = load i8, ptr %21, align 2, !tbaa !60
  %23 = zext i8 %22 to i32
  %24 = shl nuw i32 1, %23
  %25 = getelementptr inbounds nuw i8, ptr %5, i64 68
  store i32 %24, ptr %25, align 4, !tbaa !61
  %26 = getelementptr inbounds nuw i8, ptr %0, i64 44
  %27 = load i32, ptr %26, align 4, !tbaa !48
  %28 = sub nsw i32 0, %27
  %29 = ashr i32 %28, %23
  %30 = sub nsw i32 0, %29
  %31 = getelementptr inbounds nuw i8, ptr %5, i64 92
  %32 = getelementptr inbounds nuw i8, ptr %5, i64 100
  store i32 %30, ptr %32, align 4, !tbaa !50
  %33 = getelementptr inbounds nuw i8, ptr %5, i64 96
  store i32 %30, ptr %33, align 4, !tbaa !50
  %34 = getelementptr inbounds nuw i8, ptr %0, i64 44
  %35 = load i32, ptr %34, align 4, !tbaa !48
  %36 = getelementptr inbounds nuw i8, ptr %5, i64 104
  store i32 %35, ptr %36, align 4, !tbaa !50
  store i32 %35, ptr %31, align 4, !tbaa !50
  %37 = getelementptr inbounds nuw i8, ptr %0, i64 40
  %38 = load i32, ptr %37, align 8, !tbaa !47
  %39 = sub nsw i32 0, %38
  %40 = ashr i32 %39, %18
  %41 = sub nsw i32 0, %40
  %42 = getelementptr inbounds nuw i8, ptr %5, i64 108
  %43 = getelementptr inbounds nuw i8, ptr %5, i64 116
  store i32 %41, ptr %43, align 4, !tbaa !50
  %44 = getelementptr inbounds nuw i8, ptr %5, i64 112
  store i32 %41, ptr %44, align 4, !tbaa !50
  %45 = getelementptr inbounds nuw i8, ptr %0, i64 40
  %46 = load i32, ptr %45, align 8, !tbaa !47
  %47 = getelementptr inbounds nuw i8, ptr %5, i64 120
  store i32 %46, ptr %47, align 4, !tbaa !50
  store i32 %46, ptr %42, align 4, !tbaa !50
  %48 = getelementptr inbounds nuw i8, ptr %5, i64 76
  %49 = load i32, ptr %6, align 4, !tbaa !51
  %50 = load i32, ptr %45, align 8, !tbaa !47
  %51 = tail call i32 @av_image_fill_linesizes(ptr noundef nonnull %48, i32 noundef %49, i32 noundef %50) #5
  %. = tail call i32 @llvm.smin.i32(i32 %51, i32 0)
  ret i32 %.
}